(dp1
I0
(lp2
(lp3
(ipuddlestuff.actiondlg
Function
p4
(dp5
S'function'
p6
cpuddlestuff.functions
titleCase
p7
sS'info'
p8
(lp9
S'Case Conversion'
p10
aS'$0: $1'
p11
asS'doc'
p12
(lp13
S'Case Conversion, "$0: $1"'
p14
aS'Type, QComboBox, Mixed Case,UPPER CASE,lower case'
p15
aS'"For Mixed Case, after any of:", QLineEdit, "., !"'
p16
asS'args'
p17
(lp18
VMixed Case
p19
aV., !(
p20
asS'funcname'
p21
S'Case Conversion'
p22
sS'tag'
p23
(lp24
Valbum
p25
aVtitle
p26
aVartist
p27
asba(ipuddlestuff.actiondlg
Function
p28
(dp29
g6
cpuddlestuff.functions
replace
p30
sg8
(lp31
S'Replace'
p32
aS"Replace '$0': '$1' -> '$2'"
p33
asg12
(lp34
S'Replace, "Replace \'$0\': \'$1\' -> \'$2\'"'
p35
aS'Replace, QLineEdit'
p36
aS'with:, QLineEdit'
p37
aS'Match case:, QCheckBox'
p38
aS'only as whole word, QCheckBox'
p39
asg17
(lp40
V_
aV 
aI00
aI00
asg21
S'Replace'
p41
sg23
(lp42
Vartist
p43
aValbum
p44
aVtitle
p45
asba(ipuddlestuff.actiondlg
Function
p46
(dp47
g6
g30
sg8
(lp48
S'Replace'
p49
aS"Replace '$0': '$1' -> '$2'"
p50
asg12
(lp51
S'Replace, "Replace \'$0\': \'$1\' -> \'$2\'"'
p52
aS'Replace, QLineEdit'
p53
aS'with:, QLineEdit'
p54
aS'Match case:, QCheckBox'
p55
aS'only as whole word, QCheckBox'
p56
asg17
(lp57
VVS
p58
aVvs
p59
aI00
aI01
asg21
S'Replace'
p60
sg23
(lp61
Vartist
p62
aVtitle
p63
asba(ipuddlestuff.actiondlg
Function
p64
(dp65
g6
g30
sg8
(lp66
S'Replace'
p67
aS"Replace '$0': '$1' -> '$2'"
p68
asg12
(lp69
S'Replace, "Replace \'$0\': \'$1\' -> \'$2\'"'
p70
aS'Replace, QLineEdit'
p71
aS'with:, QLineEdit'
p72
aS'Match case:, QCheckBox'
p73
aS'only as whole word, QCheckBox'
p74
asg17
(lp75
VFeat
p76
aVft
p77
aI00
aI01
asg21
S'Replace'
p78
sg23
(lp79
Vartist
p80
aVtitle
p81
asba(ipuddlestuff.actiondlg
Function
p82
(dp83
g6
g30
sg8
(lp84
S'Replace'
p85
aS"Replace '$0': '$1' -> '$2'"
p86
asg12
(lp87
S'Replace, "Replace \'$0\': \'$1\' -> \'$2\'"'
p88
aS'Replace, QLineEdit'
p89
aS'with:, QLineEdit'
p90
aS'Match case:, QCheckBox'
p91
aS'only as whole word, QCheckBox'
p92
asg17
(lp93
Vfeaturing
p94
aVft
p95
aI00
aI01
asg21
S'Replace'
p96
sg23
(lp97
Vartist
p98
aVtitle
p99
asba(ipuddlestuff.actiondlg
Function
p100
(dp101
g6
g30
sg8
(lp102
S'Replace'
p103
aS"Replace '$0': '$1' -> '$2'"
p104
asg12
(lp105
S'Replace, "Replace \'$0\': \'$1\' -> \'$2\'"'
p106
aS'Replace, QLineEdit'
p107
aS'with:, QLineEdit'
p108
aS'Match case:, QCheckBox'
p109
aS'only as whole word, QCheckBox'
p110
asg17
(lp111
Vft.
p112
aVft
p113
aI00
aI01
asg21
S'Replace'
p114
sg23
(lp115
Vartist
p116
aVtitle
p117
asba(ipuddlestuff.actiondlg
Function
p118
(dp119
g6
g30
sg8
(lp120
S'Replace'
p121
aS"Replace '$0': '$1' -> '$2'"
p122
asg12
(lp123
S'Replace, "Replace \'$0\': \'$1\' -> \'$2\'"'
p124
aS'Replace, QLineEdit'
p125
aS'with:, QLineEdit'
p126
aS'Match case:, QCheckBox'
p127
aS'only as whole word, QCheckBox'
p128
asg17
(lp129
Vfeat.
p130
aVft
p131
aI00
aI01
asg21
S'Replace'
p132
sg23
(lp133
Vartist
p134
aVtitle
p135
asba(ipuddlestuff.actiondlg
Function
p136
(dp137
g6
g30
sg8
(lp138
S'Replace'
p139
aS"Replace '$0': '$1' -> '$2'"
p140
asg12
(lp141
S'Replace, "Replace \'$0\': \'$1\' -> \'$2\'"'
p142
aS'Replace, QLineEdit'
p143
aS'with:, QLineEdit'
p144
aS'Match case:, QCheckBox'
p145
aS'only as whole word, QCheckBox'
p146
asg17
(lp147
VFT
p148
aVft
p149
aI00
aI01
asg21
S'Replace'
p150
sg23
(lp151
Vartist
p152
aVtitle
p153
asba(ipuddlestuff.actiondlg
Function
p154
(dp155
g6
g30
sg8
(lp156
S'Replace'
p157
aS"Replace '$0': '$1' -> '$2'"
p158
asg12
(lp159
S'Replace, "Replace \'$0\': \'$1\' -> \'$2\'"'
p160
aS'Replace, QLineEdit'
p161
aS'with:, QLineEdit'
p162
aS'Match case:, QCheckBox'
p163
aS'only as whole word, QCheckBox'
p164
asg17
(lp165
Vc
aVSee
p166
aI00
aI01
asg21
S'Replace'
p167
sg23
(lp168
Vartist
p169
aVtitle
p170
asba(ipuddlestuff.actiondlg
Function
p171
(dp172
S'function'
p173
g30
sS'info'
p174
(lp175
S'Replace'
p176
aS"Replace '$0': '$1' -> '$2'"
p177
asS'doc'
p178
(lp179
S'Replace, "Replace \'$0\': \'$1\' -> \'$2\'"'
p180
aS'Replace, QLineEdit'
p181
aS'with:, QLineEdit'
p182
aS'Match case:, QCheckBox'
p183
aS'only as whole word, QCheckBox'
p184
asS'args'
p185
(lp186
Vu
aVYou
p187
aI00
aI01
asS'funcname'
p188
S'Replace'
p189
sS'tag'
p190
(lp191
Vtitle
p192
asba(ipuddlestuff.actiondlg
Function
p193
(dp194
g6
cpuddlestuff.functions
featFormat
p195
sg8
(lp196
S'Remove brackets from (ft)'
p197
aS'Brackets remove: $0'
p198
asg12
(lp199
S'Remove brackets from (ft), Brackets remove: $0'
p200
aS'    Feat String, QLineEdit, ft'
p201
aS'    Opening bracket, QLineEdit, "("'
p202
aS'    Closing bracket, QLineEdit, ")"'
p203
asg17
(lp204
sg21
S'Remove () from (ft)'
p205
sg23
(lp206
Vtitle
p207
aVartist
p208
asba(ipuddlestuff.actiondlg
Function
p209
(dp210
g6
g30
sg8
(lp211
S'Replace'
p212
aS"Replace '$0': '$1' -> '$2'"
p213
asg12
(lp214
S'Replace, "Replace \'$0\': \'$1\' -> \'$2\'"'
p215
aS'Replace, QLineEdit'
p216
aS'with:, QLineEdit'
p217
aS'Match case:, QCheckBox'
p218
aS'only as whole word, QCheckBox'
p219
asg17
(lp220
Vii
p221
aVII
p222
aI00
aI01
asg21
S'Replace'
p223
sg23
(lp224
Vtitle
p225
asba(ipuddlestuff.actiondlg
Function
p226
(dp227
S'function'
p228
g30
sS'info'
p229
(lp230
S'Replace'
p231
aS"Replace '$0': '$1' -> '$2'"
p232
asS'doc'
p233
(lp234
S'Replace, "Replace \'$0\': \'$1\' -> \'$2\'"'
p235
aS'Replace, QLineEdit'
p236
aS'with:, QLineEdit'
p237
aS'Match case:, QCheckBox'
p238
aS'only as whole word, QCheckBox'
p239
asS'args'
p240
(lp241
VWith
p242
aVwith
p243
aI00
aI01
asS'funcname'
p244
S'Replace'
p245
sS'tag'
p246
(lp247
Vartist
p248
aVtitle
p249
asba(ipuddlestuff.actiondlg
Function
p250
(dp251
g228
g30
sg229
(lp252
S'Replace'
p253
aS"Replace '$0': '$1' -> '$2'"
p254
asg233
(lp255
S'Replace, "Replace \'$0\': \'$1\' -> \'$2\'"'
p256
aS'Replace, QLineEdit'
p257
aS'with:, QLineEdit'
p258
aS'Match case:, QCheckBox'
p259
aS'only as whole word, QCheckBox'
p260
asg240
(lp261
Vvs.
p262
aVvs
p263
aI00
aI01
asg244
S'Replace'
p264
sg246
(lp265
Vartist
p266
aVtitle
p267
asba(ipuddlestuff.actiondlg
Function
p268
(dp269
S'function'
p270
cpuddlestuff.functions
strip
p271
sS'info'
p272
(lp273
S'Trim whitespace'
p274
aS'Trim $0'
p275
asS'doc'
p276
(lp277
S'Trim whitespace, Trim $0'
p278
asS'args'
p279
(lp280
sS'funcname'
p281
S'Trim whitespace'
p282
sS'tag'
p283
(lp284
Vartist
p285
aVtitle
p286
aValbum
p287
asbaaVCase Conversion
p288
asI1
(lp289
(lp290
(ipuddlestuff.actiondlg
Function
p291
(dp292
g6
g30
sg8
(lp293
S'Replace'
p294
aS"Replace '$0': '$1' -> '$2'"
p295
asg12
(lp296
S'Replace, "Replace \'$0\': \'$1\' -> \'$2\'"'
p297
aS'Replace, QLineEdit'
p298
aS'with:, QLineEdit'
p299
aS'Match case:, QCheckBox'
p300
aS'only as whole word, QCheckBox'
p301
asg17
(lp302
V%20
p303
aV 
aI00
aI00
asg21
S'Replace'
p304
sg23
(lp305
V__all
p306
asba(ipuddlestuff.actiondlg
Function
p307
(dp308
g6
g30
sg8
(lp309
S'Replace'
p310
aS"Replace '$0': '$1' -> '$2'"
p311
asg12
(lp312
S'Replace, "Replace \'$0\': \'$1\' -> \'$2\'"'
p313
aS'Replace, QLineEdit'
p314
aS'with:, QLineEdit'
p315
aS'Match case:, QCheckBox'
p316
aS'only as whole word, QCheckBox'
p317
asg17
(lp318
V_
aV 
aI00
aI00
asg21
S'Replace'
p319
sg23
(lp320
V__all
p321
asba(ipuddlestuff.actiondlg
Function
p322
(dp323
g6
g30
sg8
(lp324
S'Replace'
p325
aS"Replace '$0': '$1' -> '$2'"
p326
asg12
(lp327
S'Replace, "Replace \'$0\': \'$1\' -> \'$2\'"'
p328
aS'Replace, QLineEdit'
p329
aS'with:, QLineEdit'
p330
aS'Match case:, QCheckBox'
p331
aS'only as whole word, QCheckBox'
p332
asg17
(lp333
VDj
p334
aVDJ
p335
aI00
aI01
asg21
S'Replace'
p336
sg23
(lp337
V__all
p338
asba(ipuddlestuff.actiondlg
Function
p339
(dp340
g6
g30
sg8
(lp341
S'Replace'
p342
aS"Replace '$0': '$1' -> '$2'"
p343
asg12
(lp344
S'Replace, "Replace \'$0\': \'$1\' -> \'$2\'"'
p345
aS'Replace, QLineEdit'
p346
aS'with:, QLineEdit'
p347
aS'Match case:, QCheckBox'
p348
aS'only as whole word, QCheckBox'
p349
asg17
(lp350
VMc
p351
aVMC
p352
aI00
aI01
asg21
S'Replace'
p353
sg23
(lp354
V__all
p355
asba(ipuddlestuff.actiondlg
Function
p356
(dp357
g6
g30
sg8
(lp358
S'Replace'
p359
aS"Replace '$0': '$1' -> '$2'"
p360
asg12
(lp361
S'Replace, "Replace \'$0\': \'$1\' -> \'$2\'"'
p362
aS'Replace, QLineEdit'
p363
aS'with:, QLineEdit'
p364
aS'Match case:, QCheckBox'
p365
aS'only as whole word, QCheckBox'
p366
asg17
(lp367
Vvs
p368
aVvs
p369
aI00
aI01
asg21
S'Replace'
p370
sg23
(lp371
V__all
p372
asbaaVStandard
p373
as.